; Function Attrs: mustprogress nofree norecurse nosync nounwind willreturn memory(readwrite, inaccessiblemem: none) uwtable
define hidden range(i32 -1, 1) i32 @av1_get_frame_to_show(ptr nocapture noundef readonly %0, ptr nocapture noundef writeonly %1) local_unnamed_addr #8 {
  %3 = getelementptr inbounds nuw i8, ptr %0, i64 431832
  %4 = load i64, ptr %3, align 8
  %5 = icmp eq i64 %4, 0
  br i1 %5, label %12, label %6

6:                                                ; preds = %2
  %7 = getelementptr inbounds nuw i8, ptr %0, i64 431800
  %8 = add i64 %4, -1
  %9 = getelementptr inbounds [4 x ptr], ptr %7, i64 0, i64 %8
  %10 = load ptr, ptr %9, align 8
  %11 = getelementptr inbounds nuw i8, ptr %10, i64 1312
  tail call void @llvm.memcpy.p0.p0.i64(ptr noundef nonnull align 8 dereferenceable(208) %1, ptr noundef nonnull align 8 dereferenceable(208) %11, i64 208, i1 false)
  br label %12

12:                                               ; preds = %2, %6
  %.0 = phi i32 [ 0, %6 ], [ -1, %2 ]
  ret i32 %.0
}